__aeabi_idiv
__aeabi_idivmod
__aeabi_uidiv
__aeabi_unwind_cpp_pr0
__aeabi_unwind_cpp_pr1
__assert_func
atof
atoi
cosf
__cxa_begin_catch
__cxa_end_catch
__cxa_end_cleanup
__cxa_pure_virtual
__cxa_rethrow
__cxa_throw_bad_array_new_length
expf
f_close
f_gets
f_open
fprintf
__getreent
globalConfig
__gxx_personality_v0
isspace
logf
lua_callk
lua_checkstack
lua_concat
lua_copy
lua_createtable
lua_error
lua_getmetatable
lua_gettable
lua_gettop
lua_iscfunction
lua_isnumber
lua_isstring
lua_isuserdata
luaL_loadstring
luaL_where
lua_newuserdatauv
lua_next
lua_pcallk
lua_pushboolean
lua_pushcclosure
lua_pushfstring
lua_pushinteger
lua_pushlightuserdata
lua_pushlstring
lua_pushnil
lua_pushnumber
lua_pushstring
lua_pushvalue
lua_pushvfstring
lua_rawget
lua_rawgeti
lua_rawlen
lua_rawset
lua_rawseti
lua_rotate
lua_setmetatable
lua_settop
lua_toboolean
lua_tocfunction
lua_tolstring
lua_tonumberx
lua_touserdata
lua_type
lua_typename
memcpy
memmove
memset
micros
powf
simd_any_positive
simd_boxcar
simd_exp
simd_first_positive_4x
simd_hanning
simd_invert
simd_linear_interpolate
simd_log
simd_quadratic_interpolate
simd_quadratic_interpolate_with_return
simd_set
simd_sin
simd_sine_env
sinf
strcmp
strlen
tanf
_ZdaPv
_ZdlPv
_ZN2od10LinearRamp20getInterpolatedFrameEPf
_ZN2od10LinearRampC1Ev
_ZN2od10LinearRampD1Ev
_ZN2od10RecordHeadC2Ev
_ZN2od10RecordHeadD2Ev
_ZN2od10SampleFifo11zeroAndFillEv
_ZN2od10SampleFifo14allocateBufferEii
_ZN2od10SampleFifo3popEi
_ZN2od10SampleFifo8pushMonoEPfi
_ZN2od10SampleFifoC1Ev
_ZN2od10SampleFifoD1Ev
_ZN2od10SampleView16drawMiniPositionERNS_11FrameBufferEiii
_ZN2od10ZeroOutputE
_ZN2od11AudioThread12releaseFrameEPf
_ZN2od11AudioThread8getFrameEv
_ZN2od11HeadDisplay13notifyVisibleEv
_ZN2od11HeadDisplay4drawERNS_11FrameBufferE
_ZN2od11HeadDisplayC2EPNS_4HeadEiiii
_ZN2od11HeadDisplayD2Ev
_ZN2od12LookupTables17FrameOfLinearRampE
_ZN2od12LookupTables19ConvexParabolicRiseE
_ZN2od12LookupTables20ConcaveParabolicFallE
_ZN2od12StateMachine12setNextStateEi
_ZN2od12StateMachine12setStateNameEiRKSs
_ZN2od12StateMachine13setStateValueEii
_ZN2od12StateMachine15setCurrentStateEi
_ZN2od12StateMachine3addERKSs
_ZN2od12StateMachine3addERKSsi
_ZN2od12StateMachineC1ERKSs
_ZN2od12StateMachineD1Ev
_ZN2od16ReferenceCounted10releaseLuaEv
_ZN2od16ReferenceCounted3ownERS0_
_ZN2od16ReferenceCounted6attachEv
_ZN2od16ReferenceCounted7releaseEv
_ZN2od16ReferenceCounted9attachLuaEv
_ZN2od16ReferenceCountedC2Ev
_ZN2od16ReferenceCountedD2Ev
_ZN2od3Job7pendingEv
_ZN2od3JobC2Ev
_ZN2od3JobD2Ev
_ZN2od4Head9setSampleEPNS_6SampleE
_ZN2od4HeadC2Ev
_ZN2od4HeadD2Ev
_ZN2od4Unit10disconnectEv
_ZN2od4Unit7connectEPS0_S1_
_ZN2od4Unit7processEv
_ZN2od4Unit8addInputEiPNS_6ObjectERKSs
_ZN2od4Unit9getInputsEi
_ZN2od4Unit9getOutputEi
_ZN2od4Unit9setOutputEiPNS_6ObjectERKSs
_ZN2od4UnitC2ERKSsi
_ZN2od4UnitD2Ev
_ZN2od5Inlet10disconnectEv
_ZN2od5Inlet10isConstantEv
_ZN2od5Inlet6bufferEv
_ZN2od5Inlet7connectEPNS_6OutletE
_ZN2od5InletC1ERKSs
_ZN2od5InletD1Ev
_ZN2od5MixerC1Ei
_ZN2od5Mutex5enterEv
_ZN2od5Mutex5leaveEv
_ZN2od5MutexC1Ev
_ZN2od5MutexD1Ev
_ZN2od5UPOLS5setIREPfii
_ZN2od5UPOLS7clearIREv
_ZN2od5UPOLS7processEPfS1_
_ZN2od5UPOLS7shareIRERS0_
_ZN2od5UPOLSC1Ev
_ZN2od5UPOLSD1Ev
_ZN2od6Object12addParameterERNS_9ParameterE
_ZN2od6Object15addStateMachineERNS_12StateMachineE
_ZN2od6Object16updateParametersEv
_ZN2od6Object17addOutputFromHeapEPNS_6OutletE
_ZN2od6Object4holdEv
_ZN2od6Object6unholdEv
_ZN2od6Object7compileEv
_ZN2od6Object8addInputERNS_5InletE
_ZN2od6Object8getInputEi
_ZN2od6Object9addOptionERNS_6OptionE
_ZN2od6Object9addOutputERNS_6OutletE
_ZN2od6Object9getOutputEi
_ZN2od6ObjectC2Ev
_ZN2od6ObjectD2Ev
_ZN2od6Option3setEi
_ZN2od6Option5valueEv
_ZN2od6Option7getFlagEi
_ZN2od6OptionC1ERKSsi
_ZN2od6OptionD1Ev
_ZN2od6Outlet6bufferEv
_ZN2od6OutletC1ERKSs
_ZN2od6OutletD1Ev
_ZN2od6Sample13setSampleRateEf
_ZN2od6Sample14alterWaterMarkEv
_ZN2od6Slices16getIntervalCountEv
_ZN2od6Slices16getIntervalStartEi
_ZN2od6Slices17getIntervalLengthEi
_ZN2od7BigHeap14allocateZeroedEi
_ZN2od7BigHeap4freeEPc
_ZN2od7Graphic11setPositionEii
_ZN2od7Graphic12notifyHiddenEv
_ZN2od7Graphic13notifyVisibleEv
_ZN2od7Graphic21notifyContentsChangedEv
_ZN2od7Graphic7setSizeEiib
_ZN2od7GraphicC2Eiiii
_ZN2od7GraphicD2Ev
_ZN2od7MonitorC1Ev
_ZN2od7RealFFT8allocateEi
_ZN2od7RealFFTC1Ev
_ZN2od7RealFFTD1Ev
_ZN2od8JobQueue4pushEPNS_3JobE
_ZN2od8TapeHead20setResetProportionalEf
_ZN2od8TapeHead9setSampleEPNS_6SampleE
_ZN2od8TapeHeadC2Ev
_ZN2od8TapeHeadD2Ev
_ZN2od8UIThread19getRealtimeJobQueueEv
_ZN2od9Parameter10roundValueEv
_ZN2od9Parameter11roundTargetEv
_ZN2od9Parameter19enableSerializationEv
_ZN2od9Parameter22deserializeWithHardSetEv
_ZN2od9Parameter5valueEv
_ZN2od9Parameter6targetEv
_ZN2od9Parameter7hardSetEf
_ZN2od9Parameter7softSetEf
_ZN2od9ParameterC1ERKSsf
_ZN2od9ParameterD1Ev
_ZN2od9SliceHead15getFirstTriggerEPf
_ZN2od9SliceHead17determineBehaviorEb
_ZN2od9SliceHead21refreshSliceSelectionEv
_ZN2od9SliceHead9setSampleEPNS_6SampleE
_ZN2od9SliceHead9setSampleEPNS_6SampleEPNS_6SlicesE
_ZN2od9SliceHeadC2Ev
_ZN2od9SliceHeadD2Ev
_Znaj
_ZNSolsEi
_ZNSs4_Rep10_M_destroyERKSaIcE
_ZNSs4_Rep20_S_empty_rep_storageE
_ZNSs4_Rep9_S_createEjjRKSaIcE
_ZNSs4swapERSs
_ZNSs6assignEPKcj
_ZNSs6assignERKSs
_ZNSsC1EPKcRKSaIcE
_ZNSsD1Ev
_ZNSt19basic_ostringstreamIcSt11char_traitsIcESaIcEED1Ev
_ZNSt6localeC1Ev
_ZNSt6localeD1Ev
_ZNSt8ios_baseC2Ev
_ZNSt8ios_baseD2Ev
_ZNSt9basic_iosIcSt11char_traitsIcEE4initEPSt15basic_streambufIcS1_E
_Znwj
_ZSt16__ostream_insertIcSt11char_traitsIcEERSt13basic_ostreamIT_T0_ES6_PKS3_i
_ZSt19__throw_logic_errorPKc
_ZSt20__throw_length_errorPKc
_ZSt24__throw_out_of_range_fmtPKcz
_ZTIN2od10RecordHeadE
_ZTIN2od11HeadDisplayE
_ZTIN2od16ReferenceCountedE
_ZTIN2od3JobE
_ZTIN2od4HeadE
_ZTIN2od4UnitE
_ZTIN2od6ObjectE
_ZTIN2od7GraphicE
_ZTIN2od8TapeHeadE
_ZTIN2od9SliceHeadE
_ZTTSt19basic_ostringstreamIcSt11char_traitsIcESaIcEE
_ZTVN10__cxxabiv117__class_type_infoE
_ZTVN10__cxxabiv120__si_class_type_infoE
_ZTVSt15basic_streambufIcSt11char_traitsIcEE
_ZTVSt15basic_stringbufIcSt11char_traitsIcESaIcEE
_ZTVSt19basic_ostringstreamIcSt11char_traitsIcESaIcEE
_ZTVSt9basic_iosIcSt11char_traitsIcEE
I2c_closeSlave
I2c_deinit
I2c_init
I2c_openSlave
I2c_popMessage
_logBriefNice
lua_isinteger
lua_tointegerx
ticks
Uart_disable
_ZN2od11AudioThread10removeTaskEPNS_4TaskE
_ZN2od11AudioThread7addTaskEPNS_4TaskEi
_ZN2od4TaskC2ERKSs
_ZN2od4TaskD2Ev
_ZTIN2od4TaskE
_ZN2od7RealFFT14computeInverseEPfP15complex_float_t
_ZN2od7RealFFT7computeEP15complex_float_tPf
__aeabi_l2d
ticks2secsD
_ZN2od10FileReader4openERKSs
_ZN2od10FileReader8readLineERSs
_ZN2od10FileReaderC1Ev
_ZN2od10FileReaderD1Ev
_ZNSs12_M_leak_hardEv
_ZN2od6Random13generateFloatEff
_ZN2od6Random15generateIntegerEv
_ZN2od6Random23generateUnsignedIntegerEv